; ModuleID = '21/1163.c'
source_filename = "21/1163.c"
target datalayout = "e-m:e-p270:32:32-p271:32:32-p272:64:64-i64:64-f80:128-n8:16:32:64-S128"
target triple = "x86_64-pc-linux-gnu"

@.str = private unnamed_addr constant [3 x i8] c"%d\00", align 1
@.str.1 = private unnamed_addr constant [6 x i8] c"%d,%d\00", align 1

; Function Attrs: noinline nounwind uwtable
define dso_local void @bb(i32 %0, i32* %1) #0 {
  %3 = alloca i32, align 4
  %4 = alloca i32*, align 8
  %5 = alloca i32, align 4
  %6 = alloca i32, align 4
  %7 = alloca i32, align 4
  store i32 %0, i32* %3, align 4
  store i32* %1, i32** %4, align 8
  store i32 0, i32* %5, align 4
  store i32 0, i32* %6, align 4
  store i32 0, i32* %5, align 4
  br label %8

8:                                                ; preds = %61, %2
  %9 = load i32, i32* %5, align 4
  %10 = load i32, i32* %3, align 4
  %11 = sub nsw i32 %10, 1
  %12 = icmp slt i32 %9, %11
  br i1 %12, label %13, label %64

13:                                               ; preds = %8
  store i32 0, i32* %6, align 4
  br label %14

14:                                               ; preds = %57, %13
  %15 = load i32, i32* %6, align 4
  %16 = load i32, i32* %3, align 4
  %17 = load i32, i32* %5, align 4
  %18 = sub nsw i32 %16, %17
  %19 = sub nsw i32 %18, 1
  %20 = icmp slt i32 %15, %19
  br i1 %20, label %21, label %60

21:                                               ; preds = %14
  %22 = load i32*, i32** %4, align 8
  %23 = load i32, i32* %6, align 4
  %24 = sext i32 %23 to i64
  %25 = getelementptr inbounds i32, i32* %22, i64 %24
  %26 = load i32, i32* %25, align 4
  %27 = load i32*, i32** %4, align 8
  %28 = load i32, i32* %6, align 4
  %29 = add nsw i32 %28, 1
  %30 = sext i32 %29 to i64
  %31 = getelementptr inbounds i32, i32* %27, i64 %30
  %32 = load i32, i32* %31, align 4
  %33 = icmp sgt i32 %26, %32
  br i1 %33, label %34, label %56

34:                                               ; preds = %21
  %35 = load i32*, i32** %4, align 8
  %36 = load i32, i32* %6, align 4
  %37 = sext i32 %36 to i64
  %38 = getelementptr inbounds i32, i32* %35, i64 %37
  %39 = load i32, i32* %38, align 4
  store i32 %39, i32* %7, align 4
  %40 = load i32*, i32** %4, align 8
  %41 = load i32, i32* %6, align 4
  %42 = add nsw i32 %41, 1
  %43 = sext i32 %42 to i64
  %44 = getelementptr inbounds i32, i32* %40, i64 %43
  %45 = load i32, i32* %44, align 4
  %46 = load i32*, i32** %4, align 8
  %47 = load i32, i32* %6, align 4
  %48 = sext i32 %47 to i64
  %49 = getelementptr inbounds i32, i32* %46, i64 %48
  store i32 %45, i32* %49, align 4
  %50 = load i32, i32* %7, align 4
  %51 = load i32*, i32** %4, align 8
  %52 = load i32, i32* %6, align 4
  %53 = add nsw i32 %52, 1
  %54 = sext i32 %53 to i64
  %55 = getelementptr inbounds i32, i32* %51, i64 %54
  store i32 %50, i32* %55, align 4
  br label %56

56:                                               ; preds = %34, %21
  br label %57

57:                                               ; preds = %56
  %58 = load i32, i32* %6, align 4
  %59 = add nsw i32 %58, 1
  store i32 %59, i32* %6, align 4
  br label %14

60:                                               ; preds = %14
  br label %61

61:                                               ; preds = %60
  %62 = load i32, i32* %5, align 4
  %63 = add nsw i32 %62, 1
  store i32 %63, i32* %5, align 4
  br label %8

64:                                               ; preds = %8
  ret void
}

; Function Attrs: noinline nounwind uwtable
define dso_local i32 @main() #0 {
  %1 = alloca i32, align 4
  %2 = alloca i32, align 4
  %3 = alloca i32, align 4
  %4 = alloca [200 x i32], align 16
  %5 = alloca i32, align 4
  store i32 0, i32* %1, align 4
  store i32 0, i32* %5, align 4
  %6 = call i32 (i8*, ...) @__isoc99_scanf(i8* getelementptr inbounds ([3 x i8], [3 x i8]* @.str, i64 0, i64 0), i32* %2)
  store i32 0, i32* %3, align 4
  br label %7

7:                                                ; preds = %16, %0
  %8 = load i32, i32* %3, align 4
  %9 = load i32, i32* %2, align 4
  %10 = icmp slt i32 %8, %9
  br i1 %10, label %11, label %19

11:                                               ; preds = %7
  %12 = load i32, i32* %3, align 4
  %13 = sext i32 %12 to i64
  %14 = getelementptr inbounds [200 x i32], [200 x i32]* %4, i64 0, i64 %13
  %15 = call i32 (i8*, ...) @__isoc99_scanf(i8* getelementptr inbounds ([3 x i8], [3 x i8]* @.str, i64 0, i64 0), i32* %14)
  br label %16

16:                                               ; preds = %11
  %17 = load i32, i32* %3, align 4
  %18 = add nsw i32 %17, 1
  store i32 %18, i32* %3, align 4
  br label %7

19:                                               ; preds = %7
  store i32 0, i32* %3, align 4
  br label %20

20:                                               ; preds = %31, %19
  %21 = load i32, i32* %3, align 4
  %22 = load i32, i32* %2, align 4
  %23 = icmp slt i32 %21, %22
  br i1 %23, label %24, label %34

24:                                               ; preds = %20
  %25 = load i32, i32* %3, align 4
  %26 = sext i32 %25 to i64
  %27 = getelementptr inbounds [200 x i32], [200 x i32]* %4, i64 0, i64 %26
  %28 = load i32, i32* %27, align 4
  %29 = load i32, i32* %5, align 4
  %30 = add nsw i32 %29, %28
  store i32 %30, i32* %5, align 4
  br label %31

31:                                               ; preds = %24
  %32 = load i32, i32* %3, align 4
  %33 = add nsw i32 %32, 1
  store i32 %33, i32* %3, align 4
  br label %20

34:                                               ; preds = %20
  %35 = load i32, i32* %2, align 4
  %36 = getelementptr inbounds [200 x i32], [200 x i32]* %4, i64 0, i64 0
  call void @bb(i32 %35, i32* %36)
  %37 = getelementptr inbounds [200 x i32], [200 x i32]* %4, i64 0, i64 0
  %38 = load i32, i32* %37, align 16
  %39 = load i32, i32* %2, align 4
  %40 = sub nsw i32 %39, 1
  %41 = sext i32 %40 to i64
  %42 = getelementptr inbounds [200 x i32], [200 x i32]* %4, i64 0, i64 %41
  %43 = load i32, i32* %42, align 4
  %44 = add nsw i32 %38, %43
  %45 = load i32, i32* %2, align 4
  %46 = mul nsw i32 %44, %45
  %47 = load i32, i32* %5, align 4
  %48 = mul nsw i32 2, %47
  %49 = icmp eq i32 %46, %48
  br i1 %49, label %50, label %59

50:                                               ; preds = %34
  %51 = getelementptr inbounds [200 x i32], [200 x i32]* %4, i64 0, i64 0
  %52 = load i32, i32* %51, align 16
  %53 = load i32, i32* %2, align 4
  %54 = sub nsw i32 %53, 1
  %55 = sext i32 %54 to i64
  %56 = getelementptr inbounds [200 x i32], [200 x i32]* %4, i64 0, i64 %55
  %57 = load i32, i32* %56, align 4
  %58 = call i32 (i8*, ...) @printf(i8* getelementptr inbounds ([6 x i8], [6 x i8]* @.str.1, i64 0, i64 0), i32 %52, i32 %57)
  br label %88

59:                                               ; preds = %34
  %60 = load i32, i32* %5, align 4
  %61 = load i32, i32* %2, align 4
  %62 = getelementptr inbounds [200 x i32], [200 x i32]* %4, i64 0, i64 0
  %63 = load i32, i32* %62, align 16
  %64 = mul nsw i32 %61, %63
  %65 = sub nsw i32 %60, %64
  %66 = load i32, i32* %2, align 4
  %67 = load i32, i32* %2, align 4
  %68 = sub nsw i32 %67, 1
  %69 = sext i32 %68 to i64
  %70 = getelementptr inbounds [200 x i32], [200 x i32]* %4, i64 0, i64 %69
  %71 = load i32, i32* %70, align 4
  %72 = mul nsw i32 %66, %71
  %73 = load i32, i32* %5, align 4
  %74 = sub nsw i32 %72, %73
  %75 = icmp sgt i32 %65, %74
  br i1 %75, label %76, label %80

76:                                               ; preds = %59
  %77 = getelementptr inbounds [200 x i32], [200 x i32]* %4, i64 0, i64 0
  %78 = load i32, i32* %77, align 16
  %79 = call i32 (i8*, ...) @printf(i8* getelementptr inbounds ([3 x i8], [3 x i8]* @.str, i64 0, i64 0), i32 %78)
  br label %87

80:                                               ; preds = %59
  %81 = load i32, i32* %2, align 4
  %82 = sub nsw i32 %81, 1
  %83 = sext i32 %82 to i64
  %84 = getelementptr inbounds [200 x i32], [200 x i32]* %4, i64 0, i64 %83
  %85 = load i32, i32* %84, align 4
  %86 = call i32 (i8*, ...) @printf(i8* getelementptr inbounds ([3 x i8], [3 x i8]* @.str, i64 0, i64 0), i32 %85)
  br label %87

87:                                               ; preds = %80, %76
  br label %88

88:                                               ; preds = %87, %50
  %89 = load i32, i32* %1, align 4
  ret i32 %89
}

declare dso_local i32 @__isoc99_scanf(i8*, ...) #1

declare dso_local i32 @printf(i8*, ...) #1


!llvm.module.flags = !{!0}
!llvm.ident = !{!1}

!0 = !{i32 1, !"wchar_size", i32 4}
!1 = !{!"clang version 10.0.0-4ubuntu1 "}
