; ModuleID = 'source-C-CXX/20/1163.c'
source_filename = "source-C-CXX/20/1163.c"
target datalayout = "e-m:e-p270:32:32-p271:32:32-p272:64:64-i64:64-f80:128-n8:16:32:64-S128"
target triple = "x86_64-pc-linux-gnu"

@.str = private unnamed_addr constant [3 x i8] c"%d\00", align 1
@.str.1 = private unnamed_addr constant [6 x i8] c"%d,%d\00", align 1

; Function Attrs: nofree norecurse nosync nounwind sspstrong uwtable
define dso_local void @bb(i32 %0, i32* nocapture %1) local_unnamed_addr #0 {
  %3 = icmp sgt i32 %0, 1
  br i1 %3, label %4, label %50

4:                                                ; preds = %2
  %5 = add nsw i32 %0, -1
  br label %6

6:                                                ; preds = %4, %47
  %7 = phi i32 [ 0, %4 ], [ %48, %47 ]
  %8 = xor i32 %7, -1
  %9 = add i32 %8, %0
  %10 = zext i32 %9 to i64
  %11 = xor i32 %7, -1
  %12 = add i32 %11, %0
  %13 = icmp sgt i32 %12, 0
  br i1 %13, label %14, label %47

14:                                               ; preds = %6
  %15 = load i32, i32* %1, align 4, !tbaa !5
  %16 = and i64 %10, 1
  %17 = icmp eq i32 %9, 1
  br i1 %17, label %36, label %18

18:                                               ; preds = %14
  %19 = and i64 %10, 4294967294
  br label %20

20:                                               ; preds = %53, %18
  %21 = phi i32 [ %15, %18 ], [ %54, %53 ]
  %22 = phi i64 [ 0, %18 ], [ %32, %53 ]
  %23 = phi i64 [ %19, %18 ], [ %55, %53 ]
  %24 = or i64 %22, 1
  %25 = getelementptr inbounds i32, i32* %1, i64 %24
  %26 = load i32, i32* %25, align 4, !tbaa !5
  %27 = icmp sgt i32 %21, %26
  br i1 %27, label %28, label %30

28:                                               ; preds = %20
  %29 = getelementptr inbounds i32, i32* %1, i64 %22
  store i32 %26, i32* %29, align 4, !tbaa !5
  store i32 %21, i32* %25, align 4, !tbaa !5
  br label %30

30:                                               ; preds = %20, %28
  %31 = phi i32 [ %26, %20 ], [ %21, %28 ]
  %32 = add nuw nsw i64 %22, 2
  %33 = getelementptr inbounds i32, i32* %1, i64 %32
  %34 = load i32, i32* %33, align 4, !tbaa !5
  %35 = icmp sgt i32 %31, %34
  br i1 %35, label %51, label %53

36:                                               ; preds = %53, %14
  %37 = phi i32 [ %15, %14 ], [ %54, %53 ]
  %38 = phi i64 [ 0, %14 ], [ %32, %53 ]
  %39 = icmp eq i64 %16, 0
  br i1 %39, label %47, label %40

40:                                               ; preds = %36
  %41 = add nuw nsw i64 %38, 1
  %42 = getelementptr inbounds i32, i32* %1, i64 %41
  %43 = load i32, i32* %42, align 4, !tbaa !5
  %44 = icmp sgt i32 %37, %43
  br i1 %44, label %45, label %47

45:                                               ; preds = %40
  %46 = getelementptr inbounds i32, i32* %1, i64 %38
  store i32 %43, i32* %46, align 4, !tbaa !5
  store i32 %37, i32* %42, align 4, !tbaa !5
  br label %47

47:                                               ; preds = %36, %40, %45, %6
  %48 = add nuw nsw i32 %7, 1
  %49 = icmp eq i32 %48, %5
  br i1 %49, label %50, label %6, !llvm.loop !9

50:                                               ; preds = %47, %2
  ret void

51:                                               ; preds = %30
  %52 = getelementptr inbounds i32, i32* %1, i64 %24
  store i32 %34, i32* %52, align 4, !tbaa !5
  store i32 %31, i32* %33, align 4, !tbaa !5
  br label %53

53:                                               ; preds = %51, %30
  %54 = phi i32 [ %34, %30 ], [ %31, %51 ]
  %55 = add i64 %23, -2
  %56 = icmp eq i64 %55, 0
  br i1 %56, label %36, label %20, !llvm.loop !11
}

; Function Attrs: argmemonly mustprogress nofree nosync nounwind willreturn
declare void @llvm.lifetime.start.p0i8(i64 immarg, i8* nocapture) #1

; Function Attrs: argmemonly mustprogress nofree nosync nounwind willreturn
declare void @llvm.lifetime.end.p0i8(i64 immarg, i8* nocapture) #1

; Function Attrs: nofree nounwind sspstrong uwtable
define dso_local i32 @main() local_unnamed_addr #2 {
  %1 = alloca i32, align 4
  %2 = alloca [200 x i32], align 16
  %3 = bitcast i32* %1 to i8*
  call void @llvm.lifetime.start.p0i8(i64 4, i8* nonnull %3) #5
  %4 = bitcast [200 x i32]* %2 to i8*
  call void @llvm.lifetime.start.p0i8(i64 800, i8* nonnull %4) #5
  %5 = call i32 (i8*, ...) @__isoc99_scanf(i8* getelementptr inbounds ([3 x i8], [3 x i8]* @.str, i64 0, i64 0), i32* nonnull %1)
  %6 = load i32, i32* %1, align 4, !tbaa !5
  %7 = icmp sgt i32 %6, 0
  br i1 %7, label %97, label %117

8:                                                ; preds = %97
  %9 = icmp sgt i32 %102, 0
  br i1 %9, label %10, label %117

10:                                               ; preds = %8
  %11 = zext i32 %102 to i64
  %12 = icmp ult i32 %102, 8
  br i1 %12, label %94, label %13

13:                                               ; preds = %10
  %14 = and i64 %11, 4294967288
  %15 = add nsw i64 %14, -8
  %16 = lshr exact i64 %15, 3
  %17 = add nuw nsw i64 %16, 1
  %18 = and i64 %17, 3
  %19 = icmp ult i64 %15, 24
  br i1 %19, label %65, label %20

20:                                               ; preds = %13
  %21 = and i64 %17, 4611686018427387900
  br label %22

22:                                               ; preds = %22, %20
  %23 = phi i64 [ 0, %20 ], [ %62, %22 ]
  %24 = phi <4 x i32> [ zeroinitializer, %20 ], [ %60, %22 ]
  %25 = phi <4 x i32> [ zeroinitializer, %20 ], [ %61, %22 ]
  %26 = phi i64 [ %21, %20 ], [ %63, %22 ]
  %27 = getelementptr inbounds [200 x i32], [200 x i32]* %2, i64 0, i64 %23
  %28 = bitcast i32* %27 to <4 x i32>*
  %29 = load <4 x i32>, <4 x i32>* %28, align 16, !tbaa !5
  %30 = getelementptr inbounds i32, i32* %27, i64 4
  %31 = bitcast i32* %30 to <4 x i32>*
  %32 = load <4 x i32>, <4 x i32>* %31, align 16, !tbaa !5
  %33 = add <4 x i32> %29, %24
  %34 = add <4 x i32> %32, %25
  %35 = or i64 %23, 8
  %36 = getelementptr inbounds [200 x i32], [200 x i32]* %2, i64 0, i64 %35
  %37 = bitcast i32* %36 to <4 x i32>*
  %38 = load <4 x i32>, <4 x i32>* %37, align 16, !tbaa !5
  %39 = getelementptr inbounds i32, i32* %36, i64 4
  %40 = bitcast i32* %39 to <4 x i32>*
  %41 = load <4 x i32>, <4 x i32>* %40, align 16, !tbaa !5
  %42 = add <4 x i32> %38, %33
  %43 = add <4 x i32> %41, %34
  %44 = or i64 %23, 16
  %45 = getelementptr inbounds [200 x i32], [200 x i32]* %2, i64 0, i64 %44
  %46 = bitcast i32* %45 to <4 x i32>*
  %47 = load <4 x i32>, <4 x i32>* %46, align 16, !tbaa !5
  %48 = getelementptr inbounds i32, i32* %45, i64 4
  %49 = bitcast i32* %48 to <4 x i32>*
  %50 = load <4 x i32>, <4 x i32>* %49, align 16, !tbaa !5
  %51 = add <4 x i32> %47, %42
  %52 = add <4 x i32> %50, %43
  %53 = or i64 %23, 24
  %54 = getelementptr inbounds [200 x i32], [200 x i32]* %2, i64 0, i64 %53
  %55 = bitcast i32* %54 to <4 x i32>*
  %56 = load <4 x i32>, <4 x i32>* %55, align 16, !tbaa !5
  %57 = getelementptr inbounds i32, i32* %54, i64 4
  %58 = bitcast i32* %57 to <4 x i32>*
  %59 = load <4 x i32>, <4 x i32>* %58, align 16, !tbaa !5
  %60 = add <4 x i32> %56, %51
  %61 = add <4 x i32> %59, %52
  %62 = add nuw i64 %23, 32
  %63 = add i64 %26, -4
  %64 = icmp eq i64 %63, 0
  br i1 %64, label %65, label %22, !llvm.loop !12

65:                                               ; preds = %22, %13
  %66 = phi <4 x i32> [ undef, %13 ], [ %60, %22 ]
  %67 = phi <4 x i32> [ undef, %13 ], [ %61, %22 ]
  %68 = phi i64 [ 0, %13 ], [ %62, %22 ]
  %69 = phi <4 x i32> [ zeroinitializer, %13 ], [ %60, %22 ]
  %70 = phi <4 x i32> [ zeroinitializer, %13 ], [ %61, %22 ]
  %71 = icmp eq i64 %18, 0
  br i1 %71, label %88, label %72

72:                                               ; preds = %65, %72
  %73 = phi i64 [ %85, %72 ], [ %68, %65 ]
  %74 = phi <4 x i32> [ %83, %72 ], [ %69, %65 ]
  %75 = phi <4 x i32> [ %84, %72 ], [ %70, %65 ]
  %76 = phi i64 [ %86, %72 ], [ %18, %65 ]
  %77 = getelementptr inbounds [200 x i32], [200 x i32]* %2, i64 0, i64 %73
  %78 = bitcast i32* %77 to <4 x i32>*
  %79 = load <4 x i32>, <4 x i32>* %78, align 16, !tbaa !5
  %80 = getelementptr inbounds i32, i32* %77, i64 4
  %81 = bitcast i32* %80 to <4 x i32>*
  %82 = load <4 x i32>, <4 x i32>* %81, align 16, !tbaa !5
  %83 = add <4 x i32> %79, %74
  %84 = add <4 x i32> %82, %75
  %85 = add nuw i64 %73, 8
  %86 = add i64 %76, -1
  %87 = icmp eq i64 %86, 0
  br i1 %87, label %88, label %72, !llvm.loop !14

88:                                               ; preds = %72, %65
  %89 = phi <4 x i32> [ %66, %65 ], [ %83, %72 ]
  %90 = phi <4 x i32> [ %67, %65 ], [ %84, %72 ]
  %91 = add <4 x i32> %90, %89
  %92 = call i32 @llvm.vector.reduce.add.v4i32(<4 x i32> %91)
  %93 = icmp eq i64 %14, %11
  br i1 %93, label %113, label %94

94:                                               ; preds = %10, %88
  %95 = phi i64 [ 0, %10 ], [ %14, %88 ]
  %96 = phi i32 [ 0, %10 ], [ %92, %88 ]
  br label %105

97:                                               ; preds = %0, %97
  %98 = phi i64 [ %101, %97 ], [ 0, %0 ]
  %99 = getelementptr inbounds [200 x i32], [200 x i32]* %2, i64 0, i64 %98
  %100 = call i32 (i8*, ...) @__isoc99_scanf(i8* getelementptr inbounds ([3 x i8], [3 x i8]* @.str, i64 0, i64 0), i32* nonnull %99)
  %101 = add nuw nsw i64 %98, 1
  %102 = load i32, i32* %1, align 4, !tbaa !5
  %103 = sext i32 %102 to i64
  %104 = icmp slt i64 %101, %103
  br i1 %104, label %97, label %8, !llvm.loop !16

105:                                              ; preds = %94, %105
  %106 = phi i64 [ %111, %105 ], [ %95, %94 ]
  %107 = phi i32 [ %110, %105 ], [ %96, %94 ]
  %108 = getelementptr inbounds [200 x i32], [200 x i32]* %2, i64 0, i64 %106
  %109 = load i32, i32* %108, align 4, !tbaa !5
  %110 = add nsw i32 %109, %107
  %111 = add nuw nsw i64 %106, 1
  %112 = icmp eq i64 %111, %11
  br i1 %112, label %113, label %105, !llvm.loop !17

113:                                              ; preds = %105, %88
  %114 = phi i32 [ %92, %88 ], [ %110, %105 ]
  %115 = getelementptr inbounds [200 x i32], [200 x i32]* %2, i64 0, i64 0
  %116 = icmp sgt i32 %102, 1
  br i1 %116, label %121, label %117

117:                                              ; preds = %0, %8, %113
  %118 = phi i32 [ %114, %113 ], [ 0, %8 ], [ 0, %0 ]
  %119 = phi i32 [ %102, %113 ], [ %102, %8 ], [ %6, %0 ]
  %120 = add nsw i32 %119, -1
  br label %167

121:                                              ; preds = %113
  %122 = add nsw i32 %102, -1
  br label %123

123:                                              ; preds = %164, %121
  %124 = phi i32 [ 0, %121 ], [ %165, %164 ]
  %125 = xor i32 %124, -1
  %126 = add i32 %102, %125
  %127 = zext i32 %126 to i64
  %128 = xor i32 %124, -1
  %129 = add i32 %102, %128
  %130 = icmp sgt i32 %129, 0
  br i1 %130, label %131, label %164

131:                                              ; preds = %123
  %132 = load i32, i32* %115, align 16, !tbaa !5
  %133 = and i64 %127, 1
  %134 = icmp eq i32 %126, 1
  br i1 %134, label %153, label %135

135:                                              ; preds = %131
  %136 = and i64 %127, 4294967294
  br label %137

137:                                              ; preds = %195, %135
  %138 = phi i32 [ %132, %135 ], [ %196, %195 ]
  %139 = phi i64 [ 0, %135 ], [ %149, %195 ]
  %140 = phi i64 [ %136, %135 ], [ %197, %195 ]
  %141 = or i64 %139, 1
  %142 = getelementptr inbounds [200 x i32], [200 x i32]* %2, i64 0, i64 %141
  %143 = load i32, i32* %142, align 4, !tbaa !5
  %144 = icmp sgt i32 %138, %143
  br i1 %144, label %145, label %147

145:                                              ; preds = %137
  %146 = getelementptr inbounds [200 x i32], [200 x i32]* %2, i64 0, i64 %139
  store i32 %143, i32* %146, align 8, !tbaa !5
  store i32 %138, i32* %142, align 4, !tbaa !5
  br label %147

147:                                              ; preds = %145, %137
  %148 = phi i32 [ %143, %137 ], [ %138, %145 ]
  %149 = add nuw nsw i64 %139, 2
  %150 = getelementptr inbounds [200 x i32], [200 x i32]* %2, i64 0, i64 %149
  %151 = load i32, i32* %150, align 8, !tbaa !5
  %152 = icmp sgt i32 %148, %151
  br i1 %152, label %193, label %195

153:                                              ; preds = %195, %131
  %154 = phi i32 [ %132, %131 ], [ %196, %195 ]
  %155 = phi i64 [ 0, %131 ], [ %149, %195 ]
  %156 = icmp eq i64 %133, 0
  br i1 %156, label %164, label %157

157:                                              ; preds = %153
  %158 = add nuw nsw i64 %155, 1
  %159 = getelementptr inbounds [200 x i32], [200 x i32]* %2, i64 0, i64 %158
  %160 = load i32, i32* %159, align 4, !tbaa !5
  %161 = icmp sgt i32 %154, %160
  br i1 %161, label %162, label %164

162:                                              ; preds = %157
  %163 = getelementptr inbounds [200 x i32], [200 x i32]* %2, i64 0, i64 %155
  store i32 %160, i32* %163, align 4, !tbaa !5
  store i32 %154, i32* %159, align 4, !tbaa !5
  br label %164

164:                                              ; preds = %153, %157, %162, %123
  %165 = add nuw nsw i32 %124, 1
  %166 = icmp eq i32 %165, %122
  br i1 %166, label %167, label %123, !llvm.loop !9

167:                                              ; preds = %164, %117
  %168 = phi i32 [ %118, %117 ], [ %114, %164 ]
  %169 = phi i32 [ %119, %117 ], [ %102, %164 ]
  %170 = phi i32 [ %120, %117 ], [ %122, %164 ]
  %171 = getelementptr inbounds [200 x i32], [200 x i32]* %2, i64 0, i64 0
  %172 = load i32, i32* %171, align 16, !tbaa !5
  %173 = sext i32 %170 to i64
  %174 = getelementptr inbounds [200 x i32], [200 x i32]* %2, i64 0, i64 %173
  %175 = load i32, i32* %174, align 4, !tbaa !5
  %176 = add nsw i32 %175, %172
  %177 = mul nsw i32 %176, %169
  %178 = shl nsw i32 %168, 1
  %179 = icmp eq i32 %177, %178
  br i1 %179, label %180, label %182

180:                                              ; preds = %167
  %181 = call i32 (i8*, ...) @printf(i8* nonnull dereferenceable(1) getelementptr inbounds ([6 x i8], [6 x i8]* @.str.1, i64 0, i64 0), i32 %172, i32 %175)
  br label %192

182:                                              ; preds = %167
  %183 = mul nsw i32 %172, %169
  %184 = sub nsw i32 %168, %183
  %185 = mul nsw i32 %175, %169
  %186 = sub nsw i32 %185, %168
  %187 = icmp sgt i32 %184, %186
  br i1 %187, label %188, label %190

188:                                              ; preds = %182
  %189 = call i32 (i8*, ...) @printf(i8* nonnull dereferenceable(1) getelementptr inbounds ([3 x i8], [3 x i8]* @.str, i64 0, i64 0), i32 %172)
  br label %192

190:                                              ; preds = %182
  %191 = call i32 (i8*, ...) @printf(i8* nonnull dereferenceable(1) getelementptr inbounds ([3 x i8], [3 x i8]* @.str, i64 0, i64 0), i32 %175)
  br label %192

192:                                              ; preds = %188, %190, %180
  call void @llvm.lifetime.end.p0i8(i64 800, i8* nonnull %4) #5
  call void @llvm.lifetime.end.p0i8(i64 4, i8* nonnull %3) #5
  ret i32 0

193:                                              ; preds = %147
  %194 = getelementptr inbounds [200 x i32], [200 x i32]* %2, i64 0, i64 %141
  store i32 %151, i32* %194, align 4, !tbaa !5
  store i32 %148, i32* %150, align 8, !tbaa !5
  br label %195

195:                                              ; preds = %193, %147
  %196 = phi i32 [ %151, %147 ], [ %148, %193 ]
  %197 = add i64 %140, -2
  %198 = icmp eq i64 %197, 0
  br i1 %198, label %153, label %137, !llvm.loop !11
}

; Function Attrs: nofree nounwind
declare noundef i32 @__isoc99_scanf(i8* nocapture noundef readonly, ...) local_unnamed_addr #3

; Function Attrs: nofree nounwind
declare noundef i32 @printf(i8* nocapture noundef readonly, ...) local_unnamed_addr #3

; Function Attrs: nofree nosync nounwind readnone willreturn
declare i32 @llvm.vector.reduce.add.v4i32(<4 x i32>) #4


!llvm.module.flags = !{!0, !1, !2, !3}
!llvm.ident = !{!4}

!0 = !{i32 1, !"wchar_size", i32 4}
!1 = !{i32 7, !"PIC Level", i32 2}
!2 = !{i32 7, !"PIE Level", i32 2}
!3 = !{i32 7, !"uwtable", i32 1}
!4 = !{!"clang version 13.0.0"}
!5 = !{!6, !6, i64 0}
!6 = !{!"int", !7, i64 0}
!7 = !{!"omnipotent char", !8, i64 0}
!8 = !{!"Simple C/C++ TBAA"}
!9 = distinct !{!9, !10}
!10 = !{!"llvm.loop.mustprogress"}
!11 = distinct !{!11, !10}
!12 = distinct !{!12, !10, !13}
!13 = !{!"llvm.loop.isvectorized", i32 1}
!14 = distinct !{!14, !15}
!15 = !{!"llvm.loop.unroll.disable"}
!16 = distinct !{!16, !10}
!17 = distinct !{!17, !10, !18, !13}
!18 = !{!"llvm.loop.unroll.runtime.disable"}
